; Function Attrs: mustprogress nofree norecurse nosync nounwind willreturn memory(none) uwtable
define hidden noundef range(i32 1, 5) i32 @_ZN10duckdb_re27runelenEi(i32 noundef %0) local_unnamed_addr #1 {
  %2 = icmp ult i32 %0, 128
  br i1 %2, label %_ZN10duckdb_re210runetocharEPcPKi.exit, label %3

3:                                                ; preds = %1
  %4 = icmp ult i32 %0, 2048
  br i1 %4, label %_ZN10duckdb_re210runetocharEPcPKi.exit, label %5

5:                                                ; preds = %3
  %6 = add i32 %0, -1114112
  %7 = icmp ult i32 %6, -1048576
  %. = select i1 %7, i32 3, i32 4
  br label %_ZN10duckdb_re210runetocharEPcPKi.exit

_ZN10duckdb_re210runetocharEPcPKi.exit:           ; preds = %5, %3, %1
  %.0.i = phi i32 [ 1, %1 ], [ 2, %3 ], [ %., %5 ]
  ret i32 %.0.i
}